target datalayout = "e-m:e-p270:32:32-p271:32:32-p272:64:64-i64:64-i128:128-f80:128-n8:16:32:64-S128"
target triple = "x86_64-pc-linux-gnu"

@.str = private unnamed_addr constant [14 x i8] c"Output %6d : \00", align 1
@.str.1 = private unnamed_addr constant [8 x i8] c"Total: \00", align 1
@.str.2 = private unnamed_addr constant [16 x i8] c"UNDECIDED      \00", align 1
@.str.3 = private unnamed_addr constant [16 x i8] c"SATISFIABLE    \00", align 1
@.str.4 = private unnamed_addr constant [16 x i8] c"UNSATISFIABLE  \00", align 1
@.str.5 = private unnamed_addr constant [5 x i8] c"Time\00", align 1
@.str.9 = private unnamed_addr constant [5 x i8] c"%s =\00", align 1
@.str.10 = private unnamed_addr constant [11 x i8] c"%9.2f sec\0A\00", align 1

; Function Attrs: inlinehint nounwind uwtable
define internal void @Abc_PrintTime(i32 noundef %0, ptr noundef %1, i64 noundef %2) #3 {
  %4 = alloca i32, align 4
  %5 = alloca ptr, align 8
  %6 = alloca i64, align 8
  store i32 %0, ptr %4, align 4, !tbaa !10
  store ptr %1, ptr %5, align 8, !tbaa !25
  store i64 %2, ptr %6, align 8, !tbaa !23
  %7 = load ptr, ptr %5, align 8, !tbaa !25
  call void (i32, ptr, ...) @Abc_Print(i32 noundef 1, ptr noundef @.str.9, ptr noundef %7)
  %8 = load i64, ptr %6, align 8, !tbaa !23
  %9 = sitofp i64 %8 to double
  %10 = fmul double 1.000000e+00, %9
  %11 = fdiv double %10, 1.000000e+06
  call void (i32, ptr, ...) @Abc_Print(i32 noundef 1, ptr noundef @.str.10, double noundef %11)
  ret void
}

; Function Attrs: nounwind uwtable
define void @Gia_ManSat3Report(i32 noundef %0, i32 noundef %1, i64 noundef %2) #0 {
  %4 = alloca i32, align 4
  %5 = alloca i32, align 4
  %6 = alloca i64, align 8
  store i32 %0, ptr %4, align 4, !tbaa !10
  store i32 %1, ptr %5, align 4, !tbaa !10
  store i64 %2, ptr %6, align 8, !tbaa !23
  %7 = load i32, ptr %4, align 4, !tbaa !10
  %8 = icmp sge i32 %7, 0
  br i1 %8, label %9, label %11

9:                                                ; preds = %3
  %10 = load i32, ptr %4, align 4, !tbaa !10
  call void (i32, ptr, ...) @Abc_Print(i32 noundef 1, ptr noundef @.str, i32 noundef %10)
  br label %12

11:                                               ; preds = %3
  call void (i32, ptr, ...) @Abc_Print(i32 noundef 1, ptr noundef @.str.1)
  br label %12

12:                                               ; preds = %11, %9
  %13 = load i32, ptr %5, align 4, !tbaa !10
  %14 = icmp eq i32 %13, 0
  br i1 %14, label %15, label %16

15:                                               ; preds = %12
  call void (i32, ptr, ...) @Abc_Print(i32 noundef 1, ptr noundef @.str.2)
  br label %22

16:                                               ; preds = %12
  %17 = load i32, ptr %5, align 4, !tbaa !10
  %18 = icmp eq i32 %17, 1
  br i1 %18, label %19, label %20

19:                                               ; preds = %16
  call void (i32, ptr, ...) @Abc_Print(i32 noundef 1, ptr noundef @.str.3)
  br label %21

20:                                               ; preds = %16
  call void (i32, ptr, ...) @Abc_Print(i32 noundef 1, ptr noundef @.str.4)
  br label %21

21:                                               ; preds = %20, %19
  br label %22

22:                                               ; preds = %21, %15
  %23 = load i64, ptr %6, align 8, !tbaa !23
  call void @Abc_PrintTime(i32 noundef 1, ptr noundef @.str.5, i64 noundef %23)
  ret void
}