; Function Attrs: nounwind uwtable
define void @Gia_ManSat3Report(i32 noundef %0, i32 noundef %1, i64 noundef %2) local_unnamed_addr #0 {
  %4 = icmp sgt i32 %0, -1
  br i1 %4, label %5, label %6

5:                                                ; preds = %3
  tail call void (i32, ptr, ...) @Abc_Print(i32 poison, ptr noundef nonnull @.str, i32 noundef %0)
  br label %7

6:                                                ; preds = %3
  tail call void (i32, ptr, ...) @Abc_Print(i32 poison, ptr noundef nonnull @.str.1)
  br label %7

7:                                                ; preds = %6, %5
  %switch.selectcmp = icmp eq i32 %1, 1
  %switch.select = select i1 %switch.selectcmp, ptr @.str.3, ptr @.str.4
  %switch.selectcmp6 = icmp eq i32 %1, 0
  %switch.select7 = select i1 %switch.selectcmp6, ptr @.str.2, ptr %switch.select
  tail call void (i32, ptr, ...) @Abc_Print(i32 poison, ptr noundef nonnull %switch.select7)
  tail call void (i32, ptr, ...) @Abc_Print(i32 poison, ptr noundef nonnull @.str.9, ptr noundef nonnull @.str.5)
  %8 = sitofp i64 %2 to double
  %9 = fdiv double %8, 1.000000e+06
  tail call void (i32, ptr, ...) @Abc_Print(i32 poison, ptr noundef nonnull @.str.10, double noundef %9)
  ret void
}